target datalayout = "e-m:e-p270:32:32-p271:32:32-p272:64:64-i64:64-i128:128-f80:128-n8:16:32:64-S128"
target triple = "x86_64-pc-linux-gnu"

@Log_file_mode = dso_local global i32 384, align 4
@.str.4 = private unnamed_addr constant [12 x i8] c"syslogger.c\00", align 1
@.str.15 = private unnamed_addr constant [33 x i8] c"could not open log file \22%s\22: %m\00", align 1
@__func__.logfile_open = private unnamed_addr constant [13 x i8] c"logfile_open\00", align 1

; Function Attrs: nounwind uwtable
define internal ptr @logfile_open(ptr noundef %0, ptr noundef %1, i1 noundef zeroext %2) #4 {
  %4 = alloca ptr, align 8
  %5 = alloca ptr, align 8
  %6 = alloca i8, align 1
  %7 = alloca ptr, align 8
  %8 = alloca i32, align 4
  %9 = alloca i32, align 4
  store ptr %0, ptr %4, align 8
  store ptr %1, ptr %5, align 8
  %10 = zext i1 %2 to i8
  store i8 %10, ptr %6, align 1
  call void @llvm.lifetime.start.p0(i64 8, ptr %7) #12
  call void @llvm.lifetime.start.p0(i64 4, ptr %8) #12
  %11 = load i32, ptr @Log_file_mode, align 4
  %12 = or i32 %11, 128
  %13 = xor i32 %12, -1
  %14 = and i32 %13, 511
  %15 = call i32 @umask(i32 noundef %14) #12
  store i32 %15, ptr %8, align 4
  %16 = load ptr, ptr %4, align 8
  %17 = load ptr, ptr %5, align 8
  %18 = call noalias ptr @fopen(ptr noundef %16, ptr noundef %17)
  store ptr %18, ptr %7, align 8
  %19 = load i32, ptr %8, align 4
  %20 = call i32 @umask(i32 noundef %19) #12
  %21 = load ptr, ptr %7, align 8
  %22 = icmp ne ptr %21, null
  br i1 %22, label %23, label %26

23:                                               ; preds = %3
  %24 = load ptr, ptr %7, align 8
  %25 = call i32 @setvbuf(ptr noundef %24, ptr noundef null, i32 noundef 1, i64 noundef 0) #12
  br label %69

26:                                               ; preds = %3
  call void @llvm.lifetime.start.p0(i64 4, ptr %9) #12
  %27 = call ptr @__errno_location() #14
  %28 = load i32, ptr %27, align 4
  store i32 %28, ptr %9, align 4
  br label %29

29:                                               ; preds = %26
  %30 = load i8, ptr %6, align 1, !range !4, !noundef !5
  %31 = trunc i8 %30 to i1
  %32 = select i1 %31, i32 15, i32 22
  %33 = call i1 @llvm.is.constant.i32(i32 %32)
  br i1 %33, label %34, label %44

34:                                               ; preds = %29
  %35 = load i8, ptr %6, align 1, !range !4, !noundef !5
  %36 = trunc i8 %35 to i1
  %37 = select i1 %36, i32 15, i32 22
  %38 = icmp sge i32 %37, 21
  br i1 %38, label %39, label %44

39:                                               ; preds = %34
  %40 = load i8, ptr %6, align 1, !range !4, !noundef !5
  %41 = trunc i8 %40 to i1
  %42 = select i1 %41, i32 15, i32 22
  %43 = call zeroext i1 @errstart_cold(i32 noundef %42, ptr noundef null) #15
  br i1 %43, label %49, label %53

44:                                               ; preds = %34, %29
  %45 = load i8, ptr %6, align 1, !range !4, !noundef !5
  %46 = trunc i8 %45 to i1
  %47 = select i1 %46, i32 15, i32 22
  %48 = call zeroext i1 @errstart(i32 noundef %47, ptr noundef null)
  br i1 %48, label %49, label %53

49:                                               ; preds = %44, %39
  %50 = call i32 @errcode_for_file_access()
  %51 = load ptr, ptr %4, align 8
  %52 = call i32 (ptr, ...) @errmsg(ptr noundef @.str.15, ptr noundef %51)
  call void @errfinish(ptr noundef @.str.4, i32 noundef 1248, ptr noundef @__func__.logfile_open)
  br label %53

53:                                               ; preds = %49, %44, %39
  %54 = load i8, ptr %6, align 1, !range !4, !noundef !5
  %55 = trunc i8 %54 to i1
  %56 = select i1 %55, i32 15, i32 22
  %57 = call i1 @llvm.is.constant.i32(i32 %56)
  br i1 %57, label %58, label %64

58:                                               ; preds = %53
  %59 = load i8, ptr %6, align 1, !range !4, !noundef !5
  %60 = trunc i8 %59 to i1
  %61 = select i1 %60, i32 15, i32 22
  %62 = icmp sge i32 %61, 21
  br i1 %62, label %63, label %64

63:                                               ; preds = %58
  unreachable

64:                                               ; preds = %58, %53
  br label %65

65:                                               ; preds = %64
  br label %66

66:                                               ; preds = %65
  %67 = load i32, ptr %9, align 4
  %68 = call ptr @__errno_location() #14
  store i32 %67, ptr %68, align 4
  call void @llvm.lifetime.end.p0(i64 4, ptr %9) #12
  br label %69

69:                                               ; preds = %66, %23
  %70 = load ptr, ptr %7, align 8
  call void @llvm.lifetime.end.p0(i64 4, ptr %8) #12
  call void @llvm.lifetime.end.p0(i64 8, ptr %7) #12
  ret ptr %70
}