; Function Attrs: nounwind uwtable
define internal fastcc noalias noundef ptr @logfile_open(ptr noundef %0, ptr noundef readonly captures(none) %1, i1 noundef zeroext %2) unnamed_addr #5 {
  %4 = load i32, ptr @Log_file_mode, align 4
  %5 = and i32 %4, 383
  %6 = xor i32 %5, 383
  %7 = tail call i32 @umask(i32 noundef %6) #15
  %8 = tail call noalias ptr @fopen(ptr noundef %0, ptr noundef %1)
  %9 = tail call i32 @umask(i32 noundef %7) #15
  %.not = icmp eq ptr %8, null
  br i1 %.not, label %12, label %10

10:                                               ; preds = %3
  %11 = tail call i32 @setvbuf(ptr noundef nonnull %8, ptr noundef null, i32 noundef 1, i64 noundef 0) #15
  br label %21

12:                                               ; preds = %3
  %13 = tail call ptr @__errno_location() #17
  %14 = load i32, ptr %13, align 4
  %15 = select i1 %2, i32 15, i32 22
  %16 = tail call zeroext i1 @errstart(i32 noundef %15, ptr noundef null) #15
  br i1 %16, label %17, label %20

17:                                               ; preds = %12
  %18 = tail call i32 @errcode_for_file_access() #15
  %19 = tail call i32 (ptr, ...) @errmsg(ptr noundef nonnull @.str.15, ptr noundef %0) #15
  tail call void @errfinish(ptr noundef nonnull @.str.4, i32 noundef 1248, ptr noundef nonnull @__func__.logfile_open) #15
  br label %20

20:                                               ; preds = %12, %17
  store i32 %14, ptr %13, align 4
  br label %21

21:                                               ; preds = %20, %10
  ret ptr %8
}